target datalayout = "e-m:e-p270:32:32-p271:32:32-p272:64:64-i64:64-i128:128-f80:128-n8:16:32:64-S128"
target triple = "x86_64-pc-linux-gnu"

@.str.2 = private unnamed_addr constant [140 x i8] c"generated/home/dtcxzyw/WorkSpace/Projects/compilers/llvm-opt-benchmark/bench/bullet3/bullet3/src/Bullet3OpenCL/Initialize/b3OpenCLUtils.cpp\00", align 1
@.str.4 = private unnamed_addr constant [17 x i8] c"b3Error[%s,%d]:\0A\00", align 1
@.str.6 = private unnamed_addr constant [15 x i8] c"libOpenCL.so.1\00", align 1
@.str.7 = private unnamed_addr constant [13 x i8] c"libOpenCL.so\00", align 1
@.str.8 = private unnamed_addr constant [36 x i8] c"clewInit failed with error code %d\0A\00", align 1
@.str.9 = private unnamed_addr constant [30 x i8] c"clewInit succesfull using %s\0A\00", align 1

; Function Attrs: mustprogress uwtable
define dso_local noundef i32 @_Z22b3OpenCLUtils_clewInitv() #0 {
  %1 = alloca i32, align 4
  %2 = alloca ptr, align 8
  call void @llvm.lifetime.start.p0(i64 4, ptr %1) #9
  store i32 -1, ptr %1, align 4, !tbaa !12
  call void @llvm.lifetime.start.p0(i64 8, ptr %2) #9
  store ptr @.str.6, ptr %2, align 8, !tbaa !4
  %3 = load ptr, ptr %2, align 8, !tbaa !4
  %4 = call i32 @clewInit(ptr noundef %3)
  store i32 %4, ptr %1, align 4, !tbaa !12
  %5 = load i32, ptr %1, align 4, !tbaa !12
  %6 = icmp ne i32 %5, 0
  br i1 %6, label %7, label %8

7:                                                ; preds = %0
  store ptr @.str.7, ptr %2, align 8, !tbaa !4
  br label %9

8:                                                ; preds = %0
  call void @clewExit()
  br label %9

9:                                                ; preds = %8, %7
  %10 = load ptr, ptr %2, align 8, !tbaa !4
  %11 = call i32 @clewInit(ptr noundef %10)
  store i32 %11, ptr %1, align 4, !tbaa !12
  %12 = load i32, ptr %1, align 4, !tbaa !12
  %13 = icmp ne i32 %12, 0
  br i1 %13, label %14, label %19

14:                                               ; preds = %9
  br label %15

15:                                               ; preds = %14
  call void (ptr, ...) @b3OutputErrorMessageVarArgsInternal(ptr noundef @.str.4, ptr noundef @.str.2, i32 noundef 119)
  %16 = load i32, ptr %1, align 4, !tbaa !12
  call void (ptr, ...) @b3OutputErrorMessageVarArgsInternal(ptr noundef @.str.8, i32 noundef %16)
  br label %17

17:                                               ; preds = %15
  br label %18

18:                                               ; preds = %17
  br label %21

19:                                               ; preds = %9
  %20 = load ptr, ptr %2, align 8, !tbaa !4
  call void (ptr, ...) @b3OutputPrintfVarArgsInternal(ptr noundef @.str.9, ptr noundef %20)
  br label %21

21:                                               ; preds = %19, %18
  %22 = load i32, ptr %1, align 4, !tbaa !12
  call void @llvm.lifetime.end.p0(i64 8, ptr %2) #9
  call void @llvm.lifetime.end.p0(i64 4, ptr %1) #9
  ret i32 %22
}