; Function Attrs: mustprogress uwtable
define dso_local noundef i32 @_Z22b3OpenCLUtils_clewInitv() local_unnamed_addr #0 {
  %1 = tail call i32 @clewInit(ptr noundef nonnull @.str.6)
  %.not = icmp eq i32 %1, 0
  br i1 %.not, label %2, label %3

2:                                                ; preds = %0
  tail call void @clewExit()
  br label %3

3:                                                ; preds = %0, %2
  %.0 = phi ptr [ @.str.6, %2 ], [ @.str.7, %0 ]
  %4 = tail call i32 @clewInit(ptr noundef nonnull %.0)
  %.not7 = icmp eq i32 %4, 0
  br i1 %.not7, label %6, label %5

5:                                                ; preds = %3
  tail call void (ptr, ...) @b3OutputErrorMessageVarArgsInternal(ptr noundef nonnull @.str.4, ptr noundef nonnull @.str.2, i32 noundef 119)
  tail call void (ptr, ...) @b3OutputErrorMessageVarArgsInternal(ptr noundef nonnull @.str.8, i32 noundef %4)
  br label %7

6:                                                ; preds = %3
  tail call void (ptr, ...) @b3OutputPrintfVarArgsInternal(ptr noundef nonnull @.str.9, ptr noundef nonnull %.0)
  br label %7

7:                                                ; preds = %6, %5
  ret i32 %4
}